(dp0
S'thresh'
p1
F0.03643624906055207
sS'mat'
p2
(lp3
(lp4
F-5.052577150633545
aF-4.339747275615174
aF-2.512396861284417
aF-3.037878024474696
aF-5.270383289353034
aF-5.270383289353034
aF-2.60347198976153
aF-6.715402936485707
aF-4.036814768113812
aF-7.5467004555264685
aF-6.198146422389425
aF-2.2070279032965185
aF-2.835836476090431
aF-2.418776074907113
aF-7.0138959250417034
aF-1.823478527720081
aF-7.5467004555264685
aF-3.104921038672894
aF-2.8458834460681905
aF-1.883739975390523
aF-3.8090308372431005
aF-4.616000652243333
aF-5.251550341019941
aF-5.7426708937066
aF-4.42091505372428
aF-6.055045578748752
aF-8.539952228536752
aF-8.539952228536752
aF-4.198747588383126
aa(lp5
F-2.3626567274520376
aF-3.6735484654988344
aF-3.04188636858957
aF-2.458626646683228
aF-3.231060619845565
aF-3.5365826104256772
aF-3.484622871494966
aF-4.772160754166944
aF-2.843435429865732
aF-3.8322968545747225
aF-5.493216722843966
aF-2.980401284938889
aF-3.1812418895000816
aF-5.132775296109757
aF-2.989617940043813
aF-3.608436714193661
aF-5.679319002477826
aF-2.5203862135766597
aF-2.873207588199402
aF-4.170203811671596
aF-2.2100382537115606
aF-5.069059481723649
aF-4.952649129879238
aF-4.140498657257679
aF-4.065345934878335
aF-5.304625553036416
aF-7.160923543402042
aF-7.160923543402042
aF-2.791475690935021
aa(lp6
F-3.0992154625254242
aF-5.563521294207273
aF-3.859740787917584
aF-4.688495917534544
aF-1.636924158179053
aF-5.013065875670515
aF-6.22525227853384
aF-3.468248287310757
aF-4.316855905580024
aF-6.756911989202672
aF-3.3805826741185308
aF-2.9707307194936305
aF-4.122879795790087
aF-5.585027499428237
aF-1.5415949160504585
aF-3.746377529843546
aF-7.966749912981006
aF-1.7271622990831015
aF-3.2556311489835346
aF-2.829222867030127
aF-3.554308189442687
aF-5.816356635328886
aF-5.796016951091763
aF-6.194793071049132
aF-4.695170024622238
aF-7.5810874321690225
aF-8.497378164043177
aF-8.497378164043177
aF-5.025411711492815
aa(lp7
F-2.183257487349744
aF-4.019790179074003
aF-3.853524013033346
aF-3.515813897153587
aF-1.5499278706284108
aF-4.634208194773735
aF-4.498707134386165
aF-4.73014948851507
aF-1.7163522075634399
aF-6.586447478880696
aF-5.0555718889496974
aF-3.151027609394054
aF-3.512725886465011
aF-5.017831560966851
aF-2.1900797269361565
aF-3.474414749630544
aF-6.542962366940957
aF-3.746719453803286
aF-3.0529231333309
aF-4.1705337005796475
aF-3.82362854823672
aF-4.900048525310467
aF-4.656537671171824
aF-4.627918865866171
aF-5.389163662705556
aF-7.620521246411235
aF-8.09052487565697
aF-8.09052487565697
aF-3.689921855410153
aa(lp8
F-3.053008644710379
aF-3.7879683675179674
aF-3.0869450632816897
aF-3.3611204368941054
aF-4.56063124651659
aF-4.5538052814461905
aF-4.56865421218759
aF-5.16848084656464
aF-5.237923055286742
aF-8.244954884094666
aF-7.192862611061449
aF-2.850294813128115
aF-2.2659540510155214
aF-2.2776433224746806
aF-5.475211113987116
aF-3.860658100886245
aF-6.445648209231228
aF-1.7716957002357503
aF-1.6734991293766521
aF-2.913994333040493
aF-5.286263882221024
aF-3.900559317638431
aF-4.487992062876619
aF-3.4882347999793737
aF-6.43815753750207
aF-6.653866110328762
aF-7.902010132967836
aF-9.033412244458935
aF-3.406510814138693
aa(lp9
F-2.977076179748259
aF-5.163127456486353
aF-3.3418091850167535
aF-4.250844746009737
aF-3.5945115385725077
aF-3.338578164435307
aF-4.58091183663369
aF-4.877948514252691
aF-2.090897211959637
aF-7.203348285012908
aF-6.935084298418229
aF-3.112857292106797
aF-4.2876587191324536
aF-5.609414559114772
aF-2.11860501876293
aF-4.330218333551249
aF-7.203348285012908
aF-3.1890464304643436
aF-3.512547600721078
aF-1.0195166529613344
aF-4.490182983243927
aF-4.924110556015854
aF-4.321560270808135
aF-3.879419684141564
aF-5.742945951739295
aF-7.465712549480399
aF-7.465712549480399
aF-7.465712549480399
aF-6.007097526780882
aa(lp10
F-3.435595717576327
aF-5.862704362840599
aF-3.528030955295053
aF-4.028385279193748
aF-1.3499355478678288
aF-4.470989934251369
aF-4.024919071217262
aF-4.3538076796283764
aF-1.9441807928093595
aF-6.918757037089913
aF-6.13599769784028
aF-3.0606623736873226
aF-4.074574661663123
aF-2.6640312452899177
aF-3.498983269854822
aF-3.1810874188065443
aF-6.32404992934322
aF-2.3492140287449725
aF-3.041066710742272
aF-4.879161403957276
aF-3.3509864556019417
aF-5.630902748783274
aF-5.532462675970022
aF-5.126997567861858
aF-6.194838197863214
aF-7.126396401868157
aF-7.388760666335648
aF-7.388760666335648
aF-2.8202544647191483
aa(lp11
F-1.8479983200733174
aF-5.172901105142505
aF-3.5199780807686656
aF-3.7369351342253765
aF-1.5966098698078481
aF-4.587174173203397
aF-5.4483130850024715
aF-5.4242155334234115
aF-2.8703160121484594
aF-6.271513393810615
aF-4.792437299239758
aF-3.1931775917214136
aF-3.9970991777832654
aF-4.92777864710952
aF-2.1497698574003996
aF-3.920138136647137
aF-6.328671807650563
aF-2.724133501970378
aF-3.8005929859973544
aF-2.7954147039753416
aF-3.221713898986348
aF-4.213125261328611
aF-4.536912338422509
aF-4.792437299239758
aF-3.0459930262237456
aF-6.02639093577763
aF-6.8593000587127335
aF-6.8593000587127335
aF-4.171452564928043
aa(lp12
F-3.436760801635273
aF-3.069887931259051
aF-1.8556835575034099
aF-3.5263473353970287
aF-3.4499677620681215
aF-4.807998927166597
aF-3.763603455113635
aF-6.192679082931947
aF-5.59419712891308
aF-8.528053998748984
aF-6.854077565177312
aF-3.0325264629132413
aF-2.4881167981902235
aF-1.509771574157661
aF-2.147705498680253
aF-4.0560343255483975
aF-8.100609983922043
aF-4.269137061237211
aF-2.8273874847710396
aF-2.8156421973947277
aF-6.5726651057391265
aF-3.8965665044435185
aF-6.918616086314883
aF-5.860825792167028
aF-8.528053998748984
aF-4.478009695423463
aF-8.933519106857148
aF-8.933519106857148
aF-4.7637579053502925
aa(lp13
F-2.2669044979742092
aF-4.969813299576001
aF-4.490240219314114
aF-3.951243718581427
aF-1.7758608831602567
aF-3.6635616461296463
aF-5.232177564043492
aF-4.969813299576001
aF-3.1780538303479458
aF-5.232177564043492
aF-4.038255095571057
aF-3.6227396516093915
aF-4.826712455935327
aF-3.951243718581427
aF-3.345107915011112
aF-1.7296276881210488
aF-5.232177564043492
aF-4.399268441108387
aF-1.597226451955111
aF-4.238925791033208
aF-3.845883202923601
aF-3.9794145955481235
aF-4.6443908991413725
aF-4.826712455935327
aF-5.136867384239167
aF-5.232177564043492
aF-5.232177564043492
aF-5.232177564043492
aF-5.049856007249537
aa(lp14
F-2.565898574428869
aF-1.941964748214226
aF-3.5536101670635367
aF-3.8394523125933104
aF-1.6512552893853125
aF-3.0059040077892094
aF-3.5873212244058488
aF-4.198230306728822
aF-2.3402889306194656
aF-6.113049868714104
aF-6.187157840867826
aF-3.6341133859126074
aF-4.503611956280004
aF-5.038535131625055
aF-4.252297527999097
aF-4.448042105125193
aF-5.494010660307881
aF-3.520998581474776
aF-2.028274757508154
aF-3.2756436463978518
aF-4.187759006861526
aF-5.318119993844216
aF-4.923465801840267
aF-5.318119993844216
aF-5.350909816667207
aF-6.267200548541362
aF-6.449522105335317
aF-6.449522105335317
aF-3.5050831261688766
aa(lp15
F-2.6073383617937607
aF-4.709619395443419
aF-4.082992897225036
aF-3.3299475750840224
aF-1.850535105788554
aF-5.533003072731034
aF-5.252868205914637
aF-5.704853329657694
aF-1.4619861403253371
aF-6.989364996467643
aF-5.992535402109475
aF-2.5925292058174727
aF-4.767360390132936
aF-5.704853329657694
aF-2.505451614624872
aF-3.804613217435569
aF-8.025456928154417
aF-4.661300818172612
aF-2.2105126162763042
aF-3.652562777043809
aF-3.2463334350428887
aF-5.115084503551584
aF-5.540550278366418
aF-5.769391850795265
aF-4.664450427075508
aF-6.989364996467643
aF-7.590138856896573
aF-8.120767107958743
aF-2.801667202228178
aa(lp16
F-2.5147435144147208
aF-5.072874353709435
aF-4.140459893631626
aF-4.118450752139836
aF-2.1836811463327144
aF-3.2418488701887673
aF-4.528005845499526
aF-6.400833137816362
aF-1.7001103771615302
aF-5.29337123387127
aF-5.798340325524547
aF-3.53596913946741
aF-3.3684475466143358
aF-6.348873398885651
aF-2.481371203291218
aF-2.908374164875882
aF-6.064360901195149
aF-5.149976747591576
aF-1.8476582469466512
aF-4.633821838277501
aF-4.5466206539417575
aF-5.956147316554916
aF-4.550804760464332
aF-6.196532674303632
aF-7.252585348552946
aF-8.320425978554303
aF-8.415736158358627
aF-8.415736158358627
aF-2.123426552272583
aa(lp17
F-2.7238543938827915
aF-5.423460636490585
aF-2.2891421996504477
aF-2.167445264672928
aF-2.4245801705455516
aF-4.012693418851969
aF-2.3815155197814626
aF-5.579113946202378
aF-2.9613340150344047
aF-6.837153971798591
aF-5.269309956663327
aF-4.69926883424868
aF-4.364669842009147
aF-5.092796741465119
aF-3.4977006654677028
aF-4.011595121102906
aF-5.455499990235202
aF-4.601579589087505
aF-2.6057349184291354
aF-1.6689874749008011
aF-3.91439071811119
aF-3.8294565301863264
aF-6.201165205078594
aF-6.651750748467228
aF-6.914115012934719
aF-8.428242745564495
aF-8.523552925368818
aF-8.523552925368818
aF-2.9214341044891183
aa(lp18
F-4.9950547756240935
aF-4.744698660785
aF-3.639397383966093
aF-3.2424872843299966
aF-6.0411891270435865
aF-2.2910356770148526
aF-4.113855363561209
aF-7.497353168123963
aF-5.437845841344945
aF-5.792605075885538
aF-4.9303815652816585
aF-3.102579179925849
aF-3.104204403751808
aF-1.8096644177820669
aF-4.020983218284314
aF-3.9725418304946314
aF-8.362350605610567
aF-2.0071113774486307
aF-2.1427549656773373
aF-4.2566128595590245
aF-2.455117212985893
aF-3.683697642862673
aF-2.8381434620802963
aF-4.382668951708607
aF-5.662668654178875
aF-8.49588199823509
aF-8.832354234856304
aF-8.832354234856304
aF-3.175314022752234
aa(lp19
F-2.7850053238703874
aF-5.5007552742739
aF-3.2851815582694845
aF-3.769997913560357
aF-2.7299797891583
aF-5.16531877052622
aF-5.095290166165737
aF-3.492638513415995
aF-1.767408304720139
aF-6.621346469660786
aF-5.4651643291711975
aF-2.339754232308674
aF-4.290281905344871
aF-4.233603568326433
aF-2.7994913328560496
aF-2.603563028553486
aF-7.483569980264665
aF-1.7769844203813472
aF-3.129563857922958
aF-3.1349912796583235
aF-3.7187046191728066
aF-4.65656783630109
aF-5.280514482617653
aF-4.730915472925701
aF-6.058561106964084
aF-6.476765240849678
aF-7.594795615374889
aF-8.12542386643706
aF-3.8543287924704597
aa(lp20
F-4.489983776178974
aF-5.223952951259174
aF-3.7968365956190286
aF-4.4507630630256925
aF-4.09794168840295
aF-4.489983776178974
aF-4.212352039580694
aF-5.143910243585638
aF-4.153511539557761
aF-4.307662219385019
aF-5.406274508053129
aF-1.949957827169894
aF-2.7600997106690066
aF-4.9362708788073935
aF-3.971189982763806
aF-4.664337163323752
aF-4.713127327493184
aF-4.875646256990959
aF-3.5499765176875027
aF-1.3702655228439917
aF-1.4922534999623098
aF-5.223952951259174
aF-3.7198755544829005
aF-5.406274508053129
aF-5.406274508053129
aF-5.310964328248804
aF-5.406274508053129
aF-5.406274508053129
aF-3.0083792352547585
aa(lp21
F-2.554465182773858
aF-5.81256172079534
aF-2.47697109046413
aF-3.9090377045561113
aF-1.4374021861926318
aF-4.748043643470206
aF-6.07996660080797
aF-5.801450495370269
aF-2.803510715401068
aF-6.825560256740458
aF-3.8868054179290072
aF-4.588129258926198
aF-3.9199210267135047
aF-4.402801824749443
aF-1.621638104090358
aF-4.17123545499441
aF-7.193285036865775
aF-4.868721037152954
aF-3.2857163817870094
aF-2.784129734803641
aF-3.62531851141715
aF-3.070101096893591
aF-6.374974713351824
aF-5.77959170155777
aF-3.7825040949395623
aF-8.291897325533885
aF-8.697362433642049
aF-8.697362433642049
aF-4.051050304322783
aa(lp22
F-4.049138334019648
aF-4.823947655805433
aF-3.5811905881258297
aF-4.335079329051136
aF-2.3819530185087334
aF-5.1711744363617855
aF-5.338020035670293
aF-3.4866460725726154
aF-3.0905867627513275
aF-7.535244613006513
aF-4.342061901062267
aF-4.503580330226458
aF-3.9389351938860333
aF-5.295573345423036
aF-1.884725707928719
aF-3.384396774716255
aF-5.399491899763961
aF-4.374618184257526
aF-3.3182508254768552
aF-1.6900049211465935
aF-3.240118496722291
aF-3.8635857566442464
aF-3.088584187343132
aF-5.505813491901338
aF-2.4092501760528715
aF-7.916612169535616
aF-8.946231586716774
aF-8.946231586716774
aF-2.505285046083854
aa(lp23
F-2.6517355927985933
aF-4.990294994190173
aF-3.901468255944782
aF-4.425236580365611
aF-1.5862552140251964
aF-4.267261804099949
aF-5.946705719853754
aF-3.587287152096542
aF-1.7475270963160725
aF-7.72107344636994
aF-6.104762654648077
aF-4.0125604123780265
aF-3.987517367412363
aF-5.775163297314626
aF-2.9527293730020276
aF-3.813196956903642
aF-6.334779085250049
aF-2.9842702202128315
aF-3.3313181343244
aF-3.747533722233139
aF-2.8008408532446514
aF-5.988502848532215
aF-3.913644966520037
aF-6.0257742433294466
aF-3.437724724919517
aF-6.784304183152244
aF-8.785784183362368
aF-8.785784183362368
aF-2.1227792094484994
aa(lp24
F-2.311602544779663
aF-3.6385840926625783
aF-4.387455995060624
aF-2.3823428597908856
aF-3.9307931081101364
aF-5.965861798246996
aF-2.8660197909368312
aF-6.71616739264689
aF-2.2455375114254013
aF-6.504858298979682
aF-7.02365209239485
aF-3.3714366226525057
aF-4.0239277975713215
aF-2.1154187319166757
aF-6.45833828334479
aF-2.791286232275375
aF-7.534477716160841
aF-1.6179163290795433
aF-3.1458065387682907
aF-2.452245536559568
aF-5.720739340214011
aF-6.504858298979682
aF-5.799876660772735
aF-4.9644132580325335
aF-7.75762126747505
aF-6.984431379241569
aF-7.939942824269005
aF-7.939942824269005
aF-7.24679564370906
aa(lp25
F-3.062506469383126
aF-4.865135610848085
aF-2.2012143232954897
aF-4.147695737719095
aF-1.7116292533505686
aF-4.713329597980081
aF-5.104808464113505
aF-5.136557162428086
aF-0.8313302915736375
aF-7.366571562587296
aF-6.41106011755986
aF-5.9802772014674055
aF-3.9261534677718593
aF-5.28713002090746
aF-4.600252453361111
aF-3.797038866105926
aF-6.450280830713141
aF-4.270993954063589
aF-2.979557386402375
aF-4.727514232972037
aF-5.08418917691077
aF-5.931487037297973
aF-6.1726490941148615
aF-5.819009053871283
aF-7.184250005793341
aF-7.184250005793341
aF-7.366571562587296
aF-7.366571562587296
aF-3.5710823734151016
aa(lp26
F-3.3883253648846634
aF-4.463055921549386
aF-4.458640903340269
aF-4.259573414634333
aF-2.3775487423035493
aF-5.000788998235301
aF-5.789246358599571
aF-6.246004761095286
aF-0.904552287861162
aF-7.1110021985818905
aF-5.174060719509337
aF-4.454245291867231
aF-3.074551614778692
aF-5.2107620863597655
aF-2.627293681130991
aF-3.899654640134481
aF-7.175540719719462
aF-3.951345733373661
aF-1.6688550874393693
aF-4.879644614876212
aF-4.476419149361552
aF-6.482393539159516
aF-5.1831105550292556
aF-5.806053476915952
aF-7.244533591206412
aF-6.748096704892522
aF-7.581005827827625
aF-7.581005827827625
aF-4.075448430841227
aa(lp27
F-2.8975665617100392
aF-3.947009826571679
aF-3.0276933737809872
aF-3.2768521642364323
aF-2.9548810183060197
aF-4.581316507108691
aF-4.363903630503466
aF-4.769368738611631
aF-3.357541075486575
aF-5.885372769991609
aF-6.431916476359679
aF-3.9699993447963777
aF-2.2561315821974044
aF-5.02314925938773
aF-5.166250103028403
aF-2.169236599318364
aF-6.264862391696513
aF-4.553145630141994
aF-3.0156812173329834
aF-1.4514280361613352
aF-4.786760481323499
aF-4.859519835605928
aF-4.958610738250159
aF-4.752274305252331
aF-2.2340312351967384
aF-6.34490509937005
aF-6.527226656164004
aF-6.527226656164004
aF-3.6040650754448484
aa(lp28
F-4.368582630404944
aF-4.480173695813406
aF-4.117268202124038
aF-5.055537840716968
aF-3.033254712877081
aF-5.953479433922927
aF-4.906692213119403
aF-5.080539142922385
aF-5.055537840716968
aF-5.894638933899993
aF-6.677398273149626
aF-3.58351893845611
aF-3.2214759917982234
aF-2.941217858417725
aF-4.928198418340367
aF-2.951704845912973
aF-6.677398273149626
aF-4.906692213119403
aF-0.5538095731146023
aF-3.517741807941396
aF-5.424635304654258
aF-6.154150129385077
aF-5.461002948825132
aF-6.405464557665984
aF-7.147401902395361
aF-6.191890457367925
aF-7.147401902395361
aF-7.147401902395361
aF-2.6780514395498045
aa(lp29
F-1.0027445398501762
aF-4.688285092698598
aF-4.400603020246817
aF-4.831385936339271
aF-1.9032738504602595
aF-4.400603020246817
aF-4.998440021002438
aF-4.688285092698598
aF-2.677836422505713
aF-5.093750200806762
aF-4.998440021002438
aF-3.353284025966258
aF-3.758749134074422
aF-4.757277964185549
aF-2.4196015513802336
aF-4.757277964185549
aF-4.998440021002438
aF-3.105875852652417
aF-3.758749134074422
aF-4.451896314634368
aF-3.7327736476711615
aF-4.831385936339271
aF-4.831385936339271
aF-4.998440021002438
aF-4.505963535904644
aF-4.305292840442492
aF-5.093750200806762
aF-5.093750200806762
aF-4.563121949744592
aa(lp30
F-3.5025498759224427
aF-3.5025498759224427
aF-2.3711477644313423
aF-3.5025498759224427
aF-3.5025498759224427
aF-3.5025498759224427
aF-3.5025498759224427
aF-2.9719216248602724
aF-3.5025498759224427
aF-3.5025498759224427
aF-3.5025498759224427
aF-3.5025498759224427
aF-3.5025498759224427
aF-3.5025498759224427
aF-3.5025498759224427
aF-3.5025498759224427
aF-3.5025498759224427
aF-3.5025498759224427
aF-2.9719216248602724
aF-3.5025498759224427
aF-3.5025498759224427
aF-3.5025498759224427
aF-3.5025498759224427
aF-3.5025498759224427
aF-3.5025498759224427
aF-3.5025498759224427
aF-2.9719216248602724
aF-3.5025498759224427
aF-3.5025498759224427
aa(lp31
F-3.367295829986474
aF-3.367295829986474
aF-3.367295829986474
aF-3.367295829986474
aF-3.367295829986474
aF-3.367295829986474
aF-3.367295829986474
aF-3.367295829986474
aF-3.367295829986474
aF-3.367295829986474
aF-3.367295829986474
aF-3.367295829986474
aF-3.367295829986474
aF-3.367295829986474
aF-3.367295829986474
aF-3.367295829986474
aF-3.367295829986474
aF-3.367295829986474
aF-3.367295829986474
aF-3.367295829986474
aF-3.367295829986474
aF-3.367295829986474
aF-3.367295829986474
aF-3.367295829986474
aF-3.367295829986474
aF-3.367295829986474
aF-3.367295829986474
aF-3.367295829986474
aF-3.367295829986474
aa(lp32
F-3.3436959146456005
aF-3.7934968365738166
aF-2.3262810331017008
aF-2.6681962508992334
aF-3.4280603869665116
aF-4.4474233039804805
aF-4.573759295624862
aF-4.632826527311844
aF-3.072178779047175
aF-5.498816520711199
aF-7.101984820131705
aF-4.050049450019156
aF-3.4619345934501595
aF-2.9860010828061228
aF-4.355114627179913
aF-3.0045201305733604
aF-5.467854295107233
aF-2.009961569768532
aF-2.4618095249449228
aF-2.609143819117533
aF-3.5466367586422907
aF-2.5997475432684958
aF-2.8774347022546634
aF-4.032479451917772
aF-7.859670521829221
aF-6.956802810287207
aF-8.265135629937385
aF-8.265135629937385
aF-3.818961175439752
aas.